target datalayout = "e-m:e-p270:32:32-p271:32:32-p272:64:64-i64:64-i128:128-f80:128-n8:16:32:64-S128"
target triple = "x86_64-pc-linux-gnu"

%class.RtpAudioFile = type { %class.QIODevice, ptr, ptr, i64, i64, i64, i64, %struct.rtp_frame_info }
%class.QIODevice = type { %class.QObject }
%class.QObject = type { ptr, %class.QScopedPointer }
%class.QScopedPointer = type { ptr }
%struct.rtp_frame_info = type { i64, i64, i64, i32, i32 }

; Function Attrs: mustprogress nounwind uwtable
define noundef i64 @_ZN12RtpAudioFile21getEndOfSilenceSampleEv(ptr noundef nonnull align 8 dereferenceable(96) %0) #2 align 2 {
  %2 = alloca i64, align 8
  %3 = alloca ptr, align 8
  store ptr %0, ptr %3, align 8
  %4 = load ptr, ptr %3, align 8
  %5 = getelementptr inbounds %class.RtpAudioFile, ptr %4, i32 0, i32 7
  %6 = getelementptr inbounds %struct.rtp_frame_info, ptr %5, i32 0, i32 4
  %7 = load i32, ptr %6, align 4
  %8 = icmp eq i32 %7, 1
  br i1 %8, label %9, label %18

9:                                                ; preds = %1
  %10 = getelementptr inbounds %class.RtpAudioFile, ptr %4, i32 0, i32 7
  %11 = getelementptr inbounds %struct.rtp_frame_info, ptr %10, i32 0, i32 0
  %12 = load i64, ptr %11, align 8
  %13 = getelementptr inbounds %class.RtpAudioFile, ptr %4, i32 0, i32 7
  %14 = getelementptr inbounds %struct.rtp_frame_info, ptr %13, i32 0, i32 2
  %15 = load i64, ptr %14, align 8
  %16 = add i64 %12, %15
  %17 = sdiv i64 %16, 2
  store i64 %17, ptr %2, align 8
  br label %19

18:                                               ; preds = %1
  store i64 -1, ptr %2, align 8
  br label %19

19:                                               ; preds = %18, %9
  %20 = load i64, ptr %2, align 8
  ret i64 %20
}