; Function Attrs: mustprogress nofree norecurse nosync nounwind willreturn memory(argmem: read) uwtable
define noundef i64 @_ZN12RtpAudioFile21getEndOfSilenceSampleEv(ptr nocapture noundef nonnull readonly align 8 dereferenceable(96) %0) local_unnamed_addr #8 align 2 {
  %2 = getelementptr inbounds i8, ptr %0, i64 92
  %3 = load i32, ptr %2, align 4
  %4 = icmp eq i32 %3, 1
  br i1 %4, label %5, label %12

5:                                                ; preds = %1
  %6 = getelementptr inbounds i8, ptr %0, i64 64
  %7 = load i64, ptr %6, align 8
  %8 = getelementptr inbounds i8, ptr %0, i64 80
  %9 = load i64, ptr %8, align 8
  %10 = add i64 %9, %7
  %11 = sdiv i64 %10, 2
  br label %12

12:                                               ; preds = %1, %5
  %.0 = phi i64 [ %11, %5 ], [ -1, %1 ]
  ret i64 %.0
}